target datalayout = "e-m:e-p270:32:32-p271:32:32-p272:64:64-i64:64-i128:128-f80:128-n8:16:32:64-S128"
target triple = "x86_64-pc-linux-gnu"

%union.pthread_cond_t = type { %struct.__pthread_cond_s }
%struct.__pthread_cond_s = type { %union.__atomic_wide_counter, %union.__atomic_wide_counter, [2 x i32], [2 x i32], i32, i32, [2 x i32] }
%union.__atomic_wide_counter = type { i64 }
%union.pthread_mutex_t = type { %struct.__pthread_mutex_s }
%struct.__pthread_mutex_s = type { i32, i32, i32, i32, i32, i16, i16, %struct.__pthread_internal_list }
%struct.__pthread_internal_list = type { ptr, ptr }
%struct.slurm_conf_t = type { i64, ptr, i16, ptr, ptr, ptr, ptr, ptr, i16, ptr, ptr, ptr, ptr, ptr, ptr, ptr, i16, ptr, ptr, ptr, ptr, i16, ptr, ptr, ptr, i64, ptr, ptr, ptr, ptr, i16, ptr, ptr, i16, i32, ptr, i32, ptr, i32, i32, ptr, ptr, i64, i64, ptr, i16, i16, ptr, i32, i32, ptr, i32, ptr, i32, i16, i16, i16, ptr, i16, i16, ptr, ptr, i32, i16, i16, ptr, i32, i16, ptr, ptr, ptr, ptr, i16, ptr, ptr, ptr, ptr, i32, ptr, ptr, ptr, ptr, i16, i16, ptr, i32, i32, i32, i16, i16, ptr, ptr, i16, ptr, ptr, i32, i32, i32, i32, i32, i64, i32, i32, i16, ptr, ptr, i32, ptr, ptr, ptr, i16, i32, ptr, ptr, i16, ptr, ptr, i32, i16, ptr, ptr, ptr, ptr, i32, i32, i16, i16, i32, ptr, i16, ptr, i32, i32, i32, i32, i32, i32, ptr, i16, ptr, ptr, i32, i16, ptr, i32, i16, i16, ptr, ptr, ptr, i16, ptr, ptr, ptr, ptr, i16, i16, ptr, i16, ptr, i16, ptr, i16, ptr, i16, ptr, ptr, ptr, ptr, i16, ptr, ptr, ptr, i32, ptr, i32, ptr, ptr, i16, ptr, ptr, i32, i16, ptr, ptr, i16, i16, ptr, i16, ptr, ptr, ptr, i32, ptr, i16, i16, ptr, ptr, ptr, ptr, ptr, ptr, ptr, ptr, i16, i32, i16, ptr, ptr, ptr, ptr, i32, ptr, ptr, ptr, i16, ptr, ptr, ptr, i16, ptr, i16, ptr, i16, i16, ptr }
%union.pthread_attr_t = type { i64, [48 x i8] }
%struct.shutdown_arg_t = type { i32, i8 }

@slurm_conf = external global %struct.slurm_conf_t, align 8
@backup_inx = dso_local global i32 0, align 4
@.str.43 = private unnamed_addr constant [29 x i8] c"%s: pthread_mutex_lock(): %m\00", align 1
@.str.44 = private unnamed_addr constant [31 x i8] c"%s: pthread_mutex_unlock(): %m\00", align 1
@.str.52 = private unnamed_addr constant [22 x i8] c"pthread_attr_init: %m\00", align 1
@.str.53 = private unnamed_addr constant [26 x i8] c"pthread_attr_setscope: %m\00", align 1
@.str.54 = private unnamed_addr constant [30 x i8] c"pthread_attr_setstacksize: %m\00", align 1
@.str.55 = private unnamed_addr constant [28 x i8] c"%s: pthread_create error %m\00", align 1
@.str.56 = private unnamed_addr constant [55 x i8] c"pthread_attr_destroy failed, possible memory leak!: %m\00", align 1
@.str.59 = private unnamed_addr constant [13 x i8] c"controller.c\00", align 1
@bu_rc = internal global i32 0, align 4
@.str.220 = private unnamed_addr constant [48 x i8] c"shutting down backup controllers (my index: %d)\00", align 1
@__func__._shutdown_backup_controller = private unnamed_addr constant [28 x i8] c"_shutdown_backup_controller\00", align 1
@.str.221 = private unnamed_addr constant [35 x i8] c"%s: pthread_attr_setdetachstate %m\00", align 1
@bu_mutex = internal global %union.pthread_mutex_t zeroinitializer, align 8
@bu_thread_cnt = internal global i32 0, align 4
@bu_cond = internal global %union.pthread_cond_t zeroinitializer, align 8
@.str.222 = private unnamed_addr constant [34 x i8] c"%s:%d %s: pthread_cond_wait(): %m\00", align 1

; Function Attrs: nounwind uwtable
define internal i32 @_shutdown_backup_controller() #0 {
  %1 = alloca i32, align 4
  %2 = alloca i32, align 4
  %3 = alloca ptr, align 8
  %4 = alloca i32, align 4
  %5 = alloca i64, align 8
  %6 = alloca %union.pthread_attr_t, align 8
  %7 = alloca i32, align 4
  %8 = alloca i32, align 4
  %9 = alloca i32, align 4
  %10 = alloca i32, align 4
  %11 = alloca i32, align 4
  %12 = alloca i32, align 4
  %13 = alloca i32, align 4
  %14 = alloca i32, align 4
  call void @llvm.lifetime.start.p0(i64 4, ptr %2) #11
  call void @llvm.lifetime.start.p0(i64 8, ptr %3) #11
  store i32 0, ptr @bu_rc, align 4
  %15 = load i32, ptr getelementptr inbounds nuw (%struct.slurm_conf_t, ptr @slurm_conf, i32 0, i32 36), align 8
  %16 = icmp eq i32 %15, 1
  br i1 %16, label %17, label %19

17:                                               ; preds = %0
  %18 = load i32, ptr @bu_rc, align 4
  store i32 %18, ptr %1, align 4
  store i32 1, ptr %4, align 4
  br label %188

19:                                               ; preds = %0
  br label %20

20:                                               ; preds = %19
  br label %21

21:                                               ; preds = %20
  %22 = call i32 @get_log_level()
  %23 = icmp sge i32 %22, 6
  br i1 %23, label %24, label %26

24:                                               ; preds = %21
  %25 = load i32, ptr @backup_inx, align 4
  call void (i32, ptr, ...) @log_var(i32 noundef 6, ptr noundef @.str.220, i32 noundef %25)
  br label %26

26:                                               ; preds = %24, %21
  br label %27

27:                                               ; preds = %26
  br label %28

28:                                               ; preds = %27
  br label %29

29:                                               ; preds = %28
  br label %30

30:                                               ; preds = %29
  store i32 1, ptr %2, align 4
  br label %31

31:                                               ; preds = %147, %30
  %32 = load i32, ptr %2, align 4
  %33 = load i32, ptr getelementptr inbounds nuw (%struct.slurm_conf_t, ptr @slurm_conf, i32 0, i32 36), align 8
  %34 = icmp ult i32 %32, %33
  br i1 %34, label %35, label %150

35:                                               ; preds = %31
  %36 = load i32, ptr %2, align 4
  %37 = load i32, ptr @backup_inx, align 4
  %38 = icmp eq i32 %36, %37
  br i1 %38, label %39, label %40

39:                                               ; preds = %35
  br label %147

40:                                               ; preds = %35
  %41 = load ptr, ptr getelementptr inbounds nuw (%struct.slurm_conf_t, ptr @slurm_conf, i32 0, i32 35), align 8
  %42 = load i32, ptr %2, align 4
  %43 = sext i32 %42 to i64
  %44 = getelementptr inbounds ptr, ptr %41, i64 %43
  %45 = load ptr, ptr %44, align 8
  %46 = icmp eq ptr %45, null
  br i1 %46, label %57, label %47

47:                                               ; preds = %40
  %48 = load ptr, ptr getelementptr inbounds nuw (%struct.slurm_conf_t, ptr @slurm_conf, i32 0, i32 35), align 8
  %49 = load i32, ptr %2, align 4
  %50 = sext i32 %49 to i64
  %51 = getelementptr inbounds ptr, ptr %48, i64 %50
  %52 = load ptr, ptr %51, align 8
  %53 = getelementptr inbounds i8, ptr %52, i64 0
  %54 = load i8, ptr %53, align 1
  %55 = sext i8 %54 to i32
  %56 = icmp eq i32 %55, 0
  br i1 %56, label %57, label %58

57:                                               ; preds = %47, %40
  br label %147

58:                                               ; preds = %47
  %59 = call ptr @slurm_xcalloc(i64 noundef 1, i64 noundef 8, i1 noundef zeroext true, i1 noundef zeroext false, ptr noundef @.str.59, i32 noundef 3151, ptr noundef @__func__._shutdown_backup_controller)
  store ptr %59, ptr %3, align 8
  %60 = load i32, ptr %2, align 4
  %61 = load ptr, ptr %3, align 8
  %62 = getelementptr inbounds nuw %struct.shutdown_arg_t, ptr %61, i32 0, i32 0
  store i32 %60, ptr %62, align 4
  %63 = load i32, ptr %2, align 4
  %64 = load i32, ptr @backup_inx, align 4
  %65 = icmp slt i32 %63, %64
  br i1 %65, label %66, label %69

66:                                               ; preds = %58
  %67 = load ptr, ptr %3, align 8
  %68 = getelementptr inbounds nuw %struct.shutdown_arg_t, ptr %67, i32 0, i32 1
  store i8 1, ptr %68, align 4
  br label %69

69:                                               ; preds = %66, %58
  br label %70

70:                                               ; preds = %69
  call void @llvm.lifetime.start.p0(i64 8, ptr %5) #11
  call void @llvm.lifetime.start.p0(i64 56, ptr %6) #11
  call void @llvm.lifetime.start.p0(i64 4, ptr %7) #11
  br label %71

71:                                               ; preds = %70
  call void @llvm.lifetime.start.p0(i64 4, ptr %8) #11
  %72 = call i32 @pthread_attr_init(ptr noundef %6) #11
  store i32 %72, ptr %8, align 4
  %73 = load i32, ptr %8, align 4
  %74 = icmp ne i32 %73, 0
  br i1 %74, label %75, label %78

75:                                               ; preds = %71
  %76 = load i32, ptr %8, align 4
  %77 = call ptr @__errno_location() #14
  store i32 %76, ptr %77, align 4
  call void (ptr, ...) @fatal(ptr noundef @.str.52) #12
  unreachable

78:                                               ; preds = %71
  %79 = call i32 @pthread_attr_setscope(ptr noundef %6, i32 noundef 0) #11
  store i32 %79, ptr %8, align 4
  %80 = load i32, ptr %8, align 4
  %81 = icmp ne i32 %80, 0
  br i1 %81, label %82, label %86

82:                                               ; preds = %78
  %83 = load i32, ptr %8, align 4
  %84 = call ptr @__errno_location() #14
  store i32 %83, ptr %84, align 4
  %85 = call i32 (ptr, ...) @error(ptr noundef @.str.53)
  br label %86

86:                                               ; preds = %82, %78
  %87 = call i32 @pthread_attr_setstacksize(ptr noundef %6, i64 noundef 1048576) #11
  store i32 %87, ptr %8, align 4
  %88 = load i32, ptr %8, align 4
  %89 = icmp ne i32 %88, 0
  br i1 %89, label %90, label %94

90:                                               ; preds = %86
  %91 = load i32, ptr %8, align 4
  %92 = call ptr @__errno_location() #14
  store i32 %91, ptr %92, align 4
  %93 = call i32 (ptr, ...) @error(ptr noundef @.str.54)
  br label %94

94:                                               ; preds = %90, %86
  call void @llvm.lifetime.end.p0(i64 4, ptr %8) #11
  br label %95

95:                                               ; preds = %94
  br label %96

96:                                               ; preds = %95
  %97 = call i32 @pthread_attr_setdetachstate(ptr noundef %6, i32 noundef 1) #11
  store i32 %97, ptr %7, align 4
  %98 = load i32, ptr %7, align 4
  %99 = icmp ne i32 %98, 0
  br i1 %99, label %100, label %103

100:                                              ; preds = %96
  %101 = load i32, ptr %7, align 4
  %102 = call ptr @__errno_location() #14
  store i32 %101, ptr %102, align 4
  call void (ptr, ...) @fatal(ptr noundef @.str.221, ptr noundef @__func__._shutdown_backup_controller) #12
  unreachable

103:                                              ; preds = %96
  %104 = load ptr, ptr %3, align 8
  %105 = call i32 @pthread_create(ptr noundef %5, ptr noundef %6, ptr noundef @_shutdown_bu_thread, ptr noundef %104) #11
  store i32 %105, ptr %7, align 4
  %106 = load i32, ptr %7, align 4
  %107 = icmp ne i32 %106, 0
  br i1 %107, label %108, label %111

108:                                              ; preds = %103
  %109 = load i32, ptr %7, align 4
  %110 = call ptr @__errno_location() #14
  store i32 %109, ptr %110, align 4
  call void (ptr, ...) @fatal(ptr noundef @.str.55, ptr noundef @__func__._shutdown_backup_controller) #12
  unreachable

111:                                              ; preds = %103
  br label %112

112:                                              ; preds = %111
  call void @llvm.lifetime.start.p0(i64 4, ptr %9) #11
  %113 = call i32 @pthread_attr_destroy(ptr noundef %6) #11
  store i32 %113, ptr %9, align 4
  %114 = load i32, ptr %9, align 4
  %115 = icmp ne i32 %114, 0
  br i1 %115, label %116, label %120

116:                                              ; preds = %112
  %117 = load i32, ptr %9, align 4
  %118 = call ptr @__errno_location() #14
  store i32 %117, ptr %118, align 4
  %119 = call i32 (ptr, ...) @error(ptr noundef @.str.56)
  br label %120

120:                                              ; preds = %116, %112
  call void @llvm.lifetime.end.p0(i64 4, ptr %9) #11
  br label %121

121:                                              ; preds = %120
  br label %122

122:                                              ; preds = %121
  call void @llvm.lifetime.end.p0(i64 4, ptr %7) #11
  call void @llvm.lifetime.end.p0(i64 56, ptr %6) #11
  call void @llvm.lifetime.end.p0(i64 8, ptr %5) #11
  br label %123

123:                                              ; preds = %122
  br label %124

124:                                              ; preds = %123
  br label %125

125:                                              ; preds = %124
  call void @llvm.lifetime.start.p0(i64 4, ptr %10) #11
  %126 = call i32 @pthread_mutex_lock(ptr noundef @bu_mutex) #11
  store i32 %126, ptr %10, align 4
  %127 = load i32, ptr %10, align 4
  %128 = icmp ne i32 %127, 0
  br i1 %128, label %129, label %132

129:                                              ; preds = %125
  %130 = load i32, ptr %10, align 4
  %131 = call ptr @__errno_location() #14
  store i32 %130, ptr %131, align 4
  call void (ptr, ...) @fatal_abort(ptr noundef @.str.43, ptr noundef @__func__._shutdown_backup_controller) #12
  unreachable

132:                                              ; preds = %125
  call void @llvm.lifetime.end.p0(i64 4, ptr %10) #11
  br label %133

133:                                              ; preds = %132
  br label %134

134:                                              ; preds = %133
  %135 = load i32, ptr @bu_thread_cnt, align 4
  %136 = add nsw i32 %135, 1
  store i32 %136, ptr @bu_thread_cnt, align 4
  br label %137

137:                                              ; preds = %134
  call void @llvm.lifetime.start.p0(i64 4, ptr %11) #11
  %138 = call i32 @pthread_mutex_unlock(ptr noundef @bu_mutex) #11
  store i32 %138, ptr %11, align 4
  %139 = load i32, ptr %11, align 4
  %140 = icmp ne i32 %139, 0
  br i1 %140, label %141, label %144

141:                                              ; preds = %137
  %142 = load i32, ptr %11, align 4
  %143 = call ptr @__errno_location() #14
  store i32 %142, ptr %143, align 4
  call void (ptr, ...) @fatal_abort(ptr noundef @.str.44, ptr noundef @__func__._shutdown_backup_controller) #12
  unreachable

144:                                              ; preds = %137
  call void @llvm.lifetime.end.p0(i64 4, ptr %11) #11
  br label %145

145:                                              ; preds = %144
  br label %146

146:                                              ; preds = %145
  br label %147

147:                                              ; preds = %146, %57, %39
  %148 = load i32, ptr %2, align 4
  %149 = add nsw i32 %148, 1
  store i32 %149, ptr %2, align 4
  br label %31, !llvm.loop !21

150:                                              ; preds = %31
  br label %151

151:                                              ; preds = %150
  call void @llvm.lifetime.start.p0(i64 4, ptr %12) #11
  %152 = call i32 @pthread_mutex_lock(ptr noundef @bu_mutex) #11
  store i32 %152, ptr %12, align 4
  %153 = load i32, ptr %12, align 4
  %154 = icmp ne i32 %153, 0
  br i1 %154, label %155, label %158

155:                                              ; preds = %151
  %156 = load i32, ptr %12, align 4
  %157 = call ptr @__errno_location() #14
  store i32 %156, ptr %157, align 4
  call void (ptr, ...) @fatal_abort(ptr noundef @.str.43, ptr noundef @__func__._shutdown_backup_controller) #12
  unreachable

158:                                              ; preds = %151
  call void @llvm.lifetime.end.p0(i64 4, ptr %12) #11
  br label %159

159:                                              ; preds = %158
  br label %160

160:                                              ; preds = %159
  br label %161

161:                                              ; preds = %175, %160
  %162 = load i32, ptr @bu_thread_cnt, align 4
  %163 = icmp ne i32 %162, 0
  br i1 %163, label %164, label %176

164:                                              ; preds = %161
  br label %165

165:                                              ; preds = %164
  call void @llvm.lifetime.start.p0(i64 4, ptr %13) #11
  %166 = call i32 @pthread_cond_wait(ptr noundef @bu_cond, ptr noundef @bu_mutex)
  store i32 %166, ptr %13, align 4
  %167 = load i32, ptr %13, align 4
  %168 = icmp ne i32 %167, 0
  br i1 %168, label %169, label %173

169:                                              ; preds = %165
  %170 = load i32, ptr %13, align 4
  %171 = call ptr @__errno_location() #14
  store i32 %170, ptr %171, align 4
  %172 = call i32 (ptr, ...) @error(ptr noundef @.str.222, ptr noundef @.str.59, i32 noundef 3170, ptr noundef @__func__._shutdown_backup_controller)
  br label %173

173:                                              ; preds = %169, %165
  call void @llvm.lifetime.end.p0(i64 4, ptr %13) #11
  br label %174

174:                                              ; preds = %173
  br label %175

175:                                              ; preds = %174
  br label %161, !llvm.loop !22

176:                                              ; preds = %161
  br label %177

177:                                              ; preds = %176
  call void @llvm.lifetime.start.p0(i64 4, ptr %14) #11
  %178 = call i32 @pthread_mutex_unlock(ptr noundef @bu_mutex) #11
  store i32 %178, ptr %14, align 4
  %179 = load i32, ptr %14, align 4
  %180 = icmp ne i32 %179, 0
  br i1 %180, label %181, label %184

181:                                              ; preds = %177
  %182 = load i32, ptr %14, align 4
  %183 = call ptr @__errno_location() #14
  store i32 %182, ptr %183, align 4
  call void (ptr, ...) @fatal_abort(ptr noundef @.str.44, ptr noundef @__func__._shutdown_backup_controller) #12
  unreachable

184:                                              ; preds = %177
  call void @llvm.lifetime.end.p0(i64 4, ptr %14) #11
  br label %185

185:                                              ; preds = %184
  br label %186

186:                                              ; preds = %185
  %187 = load i32, ptr @bu_rc, align 4
  store i32 %187, ptr %1, align 4
  store i32 1, ptr %4, align 4
  br label %188

188:                                              ; preds = %186, %17
  call void @llvm.lifetime.end.p0(i64 8, ptr %3) #11
  call void @llvm.lifetime.end.p0(i64 4, ptr %2) #11
  %189 = load i32, ptr %1, align 4
  ret i32 %189
}