; Function Attrs: nounwind uwtable
define internal fastcc void @_shutdown_backup_controller() unnamed_addr #6 {
  %1 = alloca i64, align 8
  %2 = alloca %union.pthread_attr_t, align 8
  store i1 false, ptr @bu_rc, align 4
  %3 = load i32, ptr getelementptr inbounds nuw (i8, ptr @slurm_conf, i64 280), align 8
  %4 = icmp eq i32 %3, 1
  br i1 %4, label %88, label %5

5:                                                ; preds = %0
  %6 = tail call i32 @get_log_level() #19
  %7 = icmp sgt i32 %6, 5
  br i1 %7, label %8, label %10

8:                                                ; preds = %5
  %9 = load i32, ptr @backup_inx, align 4
  tail call void (i32, ptr, ...) @log_var(i32 noundef 6, ptr noundef nonnull @.str.220, i32 noundef %9) #19
  br label %10

10:                                               ; preds = %8, %5
  %11 = load i32, ptr getelementptr inbounds nuw (i8, ptr @slurm_conf, i64 280), align 8
  %12 = icmp ugt i32 %11, 1
  br i1 %12, label %.lr.ph.preheader, label %._crit_edge

.lr.ph.preheader:                                 ; preds = %10
  %.pre89 = load i32, ptr @backup_inx, align 4
  br label %.lr.ph

.lr.ph:                                           ; preds = %.lr.ph.preheader, %70
  %13 = phi i32 [ %11, %.lr.ph.preheader ], [ %71, %70 ]
  %14 = phi i32 [ %.pre89, %.lr.ph.preheader ], [ %72, %70 ]
  %indvars.iv = phi i64 [ 1, %.lr.ph.preheader ], [ %indvars.iv.next, %70 ]
  %15 = zext i32 %14 to i64
  %16 = icmp eq i64 %indvars.iv, %15
  br i1 %16, label %70, label %17

17:                                               ; preds = %.lr.ph
  %18 = load ptr, ptr getelementptr inbounds nuw (i8, ptr @slurm_conf, i64 272), align 8
  %19 = getelementptr inbounds nuw ptr, ptr %18, i64 %indvars.iv
  %20 = load ptr, ptr %19, align 8
  %21 = icmp eq ptr %20, null
  br i1 %21, label %70, label %22

22:                                               ; preds = %17
  %23 = load i8, ptr %20, align 1
  %24 = icmp eq i8 %23, 0
  br i1 %24, label %70, label %25

25:                                               ; preds = %22
  %26 = call ptr @slurm_xcalloc(i64 noundef 1, i64 noundef 8, i1 noundef zeroext true, i1 noundef zeroext false, ptr noundef nonnull @.str.59, i32 noundef 3151, ptr noundef nonnull @__func__._shutdown_backup_controller) #19
  %27 = trunc nuw nsw i64 %indvars.iv to i32
  store i32 %27, ptr %26, align 4
  %28 = load i32, ptr @backup_inx, align 4
  %29 = sext i32 %28 to i64
  %30 = icmp slt i64 %indvars.iv, %29
  br i1 %30, label %31, label %33

31:                                               ; preds = %25
  %32 = getelementptr inbounds nuw i8, ptr %26, i64 4
  store i8 1, ptr %32, align 4
  br label %33

33:                                               ; preds = %25, %31
  call void @llvm.lifetime.start.p0(i64 8, ptr nonnull %1) #19
  call void @llvm.lifetime.start.p0(i64 56, ptr nonnull %2) #19
  %34 = call i32 @pthread_attr_init(ptr noundef nonnull %2) #19
  %.not48 = icmp eq i32 %34, 0
  br i1 %.not48, label %37, label %35

35:                                               ; preds = %33
  %36 = tail call ptr @__errno_location() #21
  store i32 %34, ptr %36, align 4
  call void (ptr, ...) @fatal(ptr noundef nonnull @.str.52) #20
  unreachable

37:                                               ; preds = %33
  %38 = call i32 @pthread_attr_setscope(ptr noundef nonnull %2, i32 noundef 0) #19
  %.not49 = icmp eq i32 %38, 0
  br i1 %.not49, label %42, label %39

39:                                               ; preds = %37
  %40 = tail call ptr @__errno_location() #21
  store i32 %38, ptr %40, align 4
  %41 = call i32 (ptr, ...) @error(ptr noundef nonnull @.str.53) #19
  br label %42

42:                                               ; preds = %39, %37
  %43 = call i32 @pthread_attr_setstacksize(ptr noundef nonnull %2, i64 noundef 1048576) #19
  %.not50 = icmp eq i32 %43, 0
  br i1 %.not50, label %47, label %44

44:                                               ; preds = %42
  %45 = tail call ptr @__errno_location() #21
  store i32 %43, ptr %45, align 4
  %46 = call i32 (ptr, ...) @error(ptr noundef nonnull @.str.54) #19
  br label %47

47:                                               ; preds = %44, %42
  %48 = call i32 @pthread_attr_setdetachstate(ptr noundef nonnull %2, i32 noundef 1) #19
  %.not51 = icmp eq i32 %48, 0
  br i1 %.not51, label %51, label %49

49:                                               ; preds = %47
  %50 = tail call ptr @__errno_location() #21
  store i32 %48, ptr %50, align 4
  call void (ptr, ...) @fatal(ptr noundef nonnull @.str.221, ptr noundef nonnull @__func__._shutdown_backup_controller) #20
  unreachable

51:                                               ; preds = %47
  %52 = call i32 @pthread_create(ptr noundef nonnull %1, ptr noundef nonnull %2, ptr noundef nonnull @_shutdown_bu_thread, ptr noundef nonnull %26) #19
  %.not52 = icmp eq i32 %52, 0
  br i1 %.not52, label %55, label %53

53:                                               ; preds = %51
  %54 = tail call ptr @__errno_location() #21
  store i32 %52, ptr %54, align 4
  call void (ptr, ...) @fatal(ptr noundef nonnull @.str.55, ptr noundef nonnull @__func__._shutdown_backup_controller) #20
  unreachable

55:                                               ; preds = %51
  %56 = call i32 @pthread_attr_destroy(ptr noundef nonnull %2) #19
  %.not53 = icmp eq i32 %56, 0
  br i1 %.not53, label %60, label %57

57:                                               ; preds = %55
  %58 = tail call ptr @__errno_location() #21
  store i32 %56, ptr %58, align 4
  %59 = call i32 (ptr, ...) @error(ptr noundef nonnull @.str.56) #19
  br label %60

60:                                               ; preds = %57, %55
  call void @llvm.lifetime.end.p0(i64 56, ptr nonnull %2) #19
  call void @llvm.lifetime.end.p0(i64 8, ptr nonnull %1) #19
  %61 = call i32 @pthread_mutex_lock(ptr noundef nonnull @bu_mutex) #19
  %.not54 = icmp eq i32 %61, 0
  br i1 %.not54, label %64, label %62

62:                                               ; preds = %60
  %63 = tail call ptr @__errno_location() #21
  store i32 %61, ptr %63, align 4
  call void (ptr, ...) @fatal_abort(ptr noundef nonnull @.str.43, ptr noundef nonnull @__func__._shutdown_backup_controller) #20
  unreachable

64:                                               ; preds = %60
  %65 = load i32, ptr @bu_thread_cnt, align 4
  %66 = add nsw i32 %65, 1
  store i32 %66, ptr @bu_thread_cnt, align 4
  %67 = call i32 @pthread_mutex_unlock(ptr noundef nonnull @bu_mutex) #19
  %.not55 = icmp eq i32 %67, 0
  br i1 %.not55, label %._crit_edge90, label %68

._crit_edge90:                                    ; preds = %64
  %.pre = load i32, ptr @backup_inx, align 4
  %.pre91 = load i32, ptr getelementptr inbounds nuw (i8, ptr @slurm_conf, i64 280), align 8
  br label %70

68:                                               ; preds = %64
  %69 = tail call ptr @__errno_location() #21
  store i32 %67, ptr %69, align 4
  call void (ptr, ...) @fatal_abort(ptr noundef nonnull @.str.44, ptr noundef nonnull @__func__._shutdown_backup_controller) #20
  unreachable

70:                                               ; preds = %._crit_edge90, %17, %22, %.lr.ph
  %71 = phi i32 [ %.pre91, %._crit_edge90 ], [ %13, %17 ], [ %13, %22 ], [ %13, %.lr.ph ]
  %72 = phi i32 [ %.pre, %._crit_edge90 ], [ %14, %17 ], [ %14, %22 ], [ %14, %.lr.ph ]
  %indvars.iv.next = add nuw nsw i64 %indvars.iv, 1
  %73 = zext i32 %71 to i64
  %74 = icmp samesign ult i64 %indvars.iv.next, %73
  br i1 %74, label %.lr.ph, label %._crit_edge, !llvm.loop !21

._crit_edge:                                      ; preds = %70, %10
  %75 = call i32 @pthread_mutex_lock(ptr noundef nonnull @bu_mutex) #19
  %.not = icmp eq i32 %75, 0
  br i1 %.not, label %.preheader, label %77

.preheader:                                       ; preds = %._crit_edge
  %76 = load i32, ptr @bu_thread_cnt, align 4
  %.not4571 = icmp eq i32 %76, 0
  br i1 %.not4571, label %._crit_edge73, label %.lr.ph72

77:                                               ; preds = %._crit_edge
  %78 = tail call ptr @__errno_location() #21
  store i32 %75, ptr %78, align 4
  call void (ptr, ...) @fatal_abort(ptr noundef nonnull @.str.43, ptr noundef nonnull @__func__._shutdown_backup_controller) #20
  unreachable

.lr.ph72:                                         ; preds = %.preheader, %83
  %79 = call i32 @pthread_cond_wait(ptr noundef nonnull @bu_cond, ptr noundef nonnull @bu_mutex) #19
  %.not47 = icmp eq i32 %79, 0
  br i1 %.not47, label %83, label %80

80:                                               ; preds = %.lr.ph72
  %81 = tail call ptr @__errno_location() #21
  store i32 %79, ptr %81, align 4
  %82 = call i32 (ptr, ...) @error(ptr noundef nonnull @.str.222, ptr noundef nonnull @.str.59, i32 noundef 3170, ptr noundef nonnull @__func__._shutdown_backup_controller) #19
  br label %83

83:                                               ; preds = %80, %.lr.ph72
  %84 = load i32, ptr @bu_thread_cnt, align 4
  %.not45 = icmp eq i32 %84, 0
  br i1 %.not45, label %._crit_edge73, label %.lr.ph72, !llvm.loop !22

._crit_edge73:                                    ; preds = %83, %.preheader
  %85 = call i32 @pthread_mutex_unlock(ptr noundef nonnull @bu_mutex) #19
  %.not46 = icmp eq i32 %85, 0
  br i1 %.not46, label %88, label %86

86:                                               ; preds = %._crit_edge73
  %87 = tail call ptr @__errno_location() #21
  store i32 %85, ptr %87, align 4
  call void (ptr, ...) @fatal_abort(ptr noundef nonnull @.str.44, ptr noundef nonnull @__func__._shutdown_backup_controller) #20
  unreachable

88:                                               ; preds = %._crit_edge73, %0
  ret void
}